; Function Attrs: mustprogress nounwind uwtable
define hidden void @_ZNK19convI2F_reg_regNode4emitEP17C2_MacroAssemblerP13PhaseRegAlloc(ptr noundef nonnull align 8 dereferenceable(80) %0, ptr noundef %1, ptr noundef %2) unnamed_addr #3 align 2 {
  %4 = load i32, ptr @UseAVX, align 4
  %5 = icmp sgt i32 %4, 0
  br i1 %5, label %6, label %18

6:                                                ; preds = %3
  %7 = getelementptr inbounds i8, ptr %0, i64 64
  %8 = load ptr, ptr %7, align 8
  %9 = load ptr, ptr %8, align 8
  %10 = getelementptr inbounds i8, ptr %9, i64 32
  %11 = load ptr, ptr %10, align 8
  %12 = tail call noundef i32 %11(ptr noundef nonnull align 8 dereferenceable(8) %8, ptr noundef %2, ptr noundef nonnull %0) #23
  %or.cond.i.i = icmp ult i32 %12, 32
  %spec.select.i.i = select i1 %or.cond.i.i, i32 %12, i32 -1
  %13 = load ptr, ptr %7, align 8
  %14 = load ptr, ptr %13, align 8
  %15 = getelementptr inbounds i8, ptr %14, i64 32
  %16 = load ptr, ptr %15, align 8
  %17 = tail call noundef i32 %16(ptr noundef nonnull align 8 dereferenceable(8) %13, ptr noundef %2, ptr noundef nonnull %0) #23
  %or.cond.i.i10 = icmp ult i32 %17, 32
  %spec.select.i.i11 = select i1 %or.cond.i.i10, i32 %17, i32 -1
  tail call void @_ZN9Assembler4pxorE11XMMRegisterS0_(ptr noundef nonnull align 8 dereferenceable(40) %1, i32 %spec.select.i.i, i32 %spec.select.i.i11) #23
  br label %18

18:                                               ; preds = %6, %3
  %19 = getelementptr inbounds i8, ptr %0, i64 64
  %20 = load ptr, ptr %19, align 8
  %21 = load ptr, ptr %20, align 8
  %22 = getelementptr inbounds i8, ptr %21, i64 32
  %23 = load ptr, ptr %22, align 8
  %24 = tail call noundef i32 %23(ptr noundef nonnull align 8 dereferenceable(8) %20, ptr noundef %2, ptr noundef nonnull %0) #23
  %or.cond.i.i12 = icmp ult i32 %24, 32
  %spec.select.i.i13 = select i1 %or.cond.i.i12, i32 %24, i32 -1
  %25 = getelementptr inbounds i8, ptr %0, i64 72
  %26 = load ptr, ptr %25, align 8
  %27 = load ptr, ptr %26, align 8
  %28 = getelementptr inbounds i8, ptr %27, i64 40
  %29 = load ptr, ptr %28, align 8
  %30 = tail call noundef i32 %29(ptr noundef nonnull align 8 dereferenceable(8) %26, ptr noundef %2, ptr noundef nonnull %0, i32 noundef 1) #23
  %or.cond.i.i14 = icmp ult i32 %30, 32
  %spec.select.i.i15 = select i1 %or.cond.i.i14, i32 %30, i32 -1
  tail call void @_ZN9Assembler9cvtsi2sslE11XMMRegister8Register(ptr noundef nonnull align 8 dereferenceable(40) %1, i32 %spec.select.i.i13, i32 %spec.select.i.i15) #23
  ret void
}